target datalayout = "e-m:e-p270:32:32-p271:32:32-p272:64:64-i64:64-i128:128-f80:128-n8:16:32:64-S128"
target triple = "x86_64-pc-linux-gnu"

%struct.sp_int = type { i16, i16, [129 x i64] }
%struct.sp_int_minimal = type { i16, i16, [1 x i64] }

; Function Attrs: nounwind uwtable
define internal void @_sp_zero(ptr noundef %0) #0 {
  %2 = alloca ptr, align 8
  %3 = alloca ptr, align 8
  store ptr %0, ptr %2, align 8, !tbaa !3
  call void @llvm.lifetime.start.p0(i64 8, ptr %3) #8
  %4 = load ptr, ptr %2, align 8, !tbaa !3
  store ptr %4, ptr %3, align 8, !tbaa !10
  %5 = load ptr, ptr %3, align 8, !tbaa !10
  %6 = getelementptr inbounds nuw %struct.sp_int_minimal, ptr %5, i32 0, i32 0
  store i16 0, ptr %6, align 8, !tbaa !20
  %7 = load ptr, ptr %3, align 8, !tbaa !10
  %8 = getelementptr inbounds nuw %struct.sp_int_minimal, ptr %7, i32 0, i32 2
  %9 = getelementptr inbounds [1 x i64], ptr %8, i64 0, i64 0
  store i64 0, ptr %9, align 8, !tbaa !16
  call void @llvm.lifetime.end.p0(i64 8, ptr %3) #8
  ret void
}

; Function Attrs: nounwind uwtable
define internal void @_sp_init_size(ptr noundef %0, i32 noundef %1) #0 {
  %3 = alloca ptr, align 8
  %4 = alloca i32, align 4
  %5 = alloca ptr, align 8
  store ptr %0, ptr %3, align 8, !tbaa !3
  store i32 %1, ptr %4, align 4, !tbaa !8
  call void @llvm.lifetime.start.p0(i64 8, ptr %5) #8
  %6 = load ptr, ptr %3, align 8, !tbaa !3
  store ptr %6, ptr %5, align 8, !tbaa !10
  %7 = load ptr, ptr %5, align 8, !tbaa !10
  call void @_sp_zero(ptr noundef %7)
  %8 = load i32, ptr %4, align 4, !tbaa !8
  %9 = trunc i32 %8 to i16
  %10 = load ptr, ptr %3, align 8, !tbaa !3
  %11 = getelementptr inbounds nuw %struct.sp_int, ptr %10, i32 0, i32 1
  store i16 %9, ptr %11, align 2, !tbaa !12
  call void @llvm.lifetime.end.p0(i64 8, ptr %5) #8
  ret void
}

; Function Attrs: nounwind uwtable
define i32 @sp_mod(ptr noundef %0, ptr noundef %1, ptr noundef %2) #0 {
  %4 = alloca ptr, align 8
  %5 = alloca ptr, align 8
  %6 = alloca ptr, align 8
  %7 = alloca i32, align 4
  store ptr %0, ptr %4, align 8, !tbaa !3
  store ptr %1, ptr %5, align 8, !tbaa !3
  store ptr %2, ptr %6, align 8, !tbaa !3
  call void @llvm.lifetime.start.p0(i64 4, ptr %7) #8
  store i32 0, ptr %7, align 4, !tbaa !8
  %8 = load ptr, ptr %4, align 8, !tbaa !3
  %9 = icmp eq ptr %8, null
  br i1 %9, label %16, label %10

10:                                               ; preds = %3
  %11 = load ptr, ptr %5, align 8, !tbaa !3
  %12 = icmp eq ptr %11, null
  br i1 %12, label %16, label %13

13:                                               ; preds = %10
  %14 = load ptr, ptr %6, align 8, !tbaa !3
  %15 = icmp eq ptr %14, null
  br i1 %15, label %16, label %17

16:                                               ; preds = %13, %10, %3
  store i32 -98, ptr %7, align 4, !tbaa !8
  br label %25

17:                                               ; preds = %13
  %18 = load ptr, ptr %4, align 8, !tbaa !3
  %19 = getelementptr inbounds nuw %struct.sp_int, ptr %18, i32 0, i32 0
  %20 = load i16, ptr %19, align 8, !tbaa !15
  %21 = zext i16 %20 to i32
  %22 = icmp sge i32 %21, 129
  br i1 %22, label %23, label %24

23:                                               ; preds = %17
  store i32 -98, ptr %7, align 4, !tbaa !8
  br label %24

24:                                               ; preds = %23, %17
  br label %25

25:                                               ; preds = %24, %16
  %26 = load i32, ptr %7, align 4, !tbaa !8
  %27 = icmp eq i32 %26, 0
  br i1 %27, label %28, label %33

28:                                               ; preds = %25
  %29 = load ptr, ptr %4, align 8, !tbaa !3
  %30 = load ptr, ptr %5, align 8, !tbaa !3
  %31 = load ptr, ptr %6, align 8, !tbaa !3
  %32 = call i32 @sp_div(ptr noundef %29, ptr noundef %30, ptr noundef null, ptr noundef %31)
  store i32 %32, ptr %7, align 4, !tbaa !8
  br label %33

33:                                               ; preds = %28, %25
  %34 = load i32, ptr %7, align 4, !tbaa !8
  call void @llvm.lifetime.end.p0(i64 4, ptr %7) #8
  ret i32 %34
}

; Function Attrs: nounwind uwtable
define i32 @sp_init_size(ptr noundef %0, i32 noundef %1) #0 {
  %3 = alloca ptr, align 8
  %4 = alloca i32, align 4
  %5 = alloca i32, align 4
  store ptr %0, ptr %3, align 8, !tbaa !3
  store i32 %1, ptr %4, align 4, !tbaa !8
  call void @llvm.lifetime.start.p0(i64 4, ptr %5) #8
  store i32 0, ptr %5, align 4, !tbaa !8
  %6 = load ptr, ptr %3, align 8, !tbaa !3
  %7 = icmp eq ptr %6, null
  br i1 %7, label %14, label %8

8:                                                ; preds = %2
  %9 = load i32, ptr %4, align 4, !tbaa !8
  %10 = icmp eq i32 %9, 0
  br i1 %10, label %14, label %11

11:                                               ; preds = %8
  %12 = load i32, ptr %4, align 4, !tbaa !8
  %13 = icmp ugt i32 %12, 129
  br i1 %13, label %14, label %15

14:                                               ; preds = %11, %8, %2
  store i32 -98, ptr %5, align 4, !tbaa !8
  br label %15

15:                                               ; preds = %14, %11
  %16 = load i32, ptr %5, align 4, !tbaa !8
  %17 = icmp eq i32 %16, 0
  br i1 %17, label %18, label %21

18:                                               ; preds = %15
  %19 = load ptr, ptr %3, align 8, !tbaa !3
  %20 = load i32, ptr %4, align 4, !tbaa !8
  call void @_sp_init_size(ptr noundef %19, i32 noundef %20)
  br label %21

21:                                               ; preds = %18, %15
  %22 = load i32, ptr %5, align 4, !tbaa !8
  call void @llvm.lifetime.end.p0(i64 4, ptr %5) #8
  ret i32 %22
}

; Function Attrs: nounwind uwtable
define internal i32 @_sp_mulmod_tmp(ptr noundef %0, ptr noundef %1, ptr noundef %2, ptr noundef %3) #0 {
  %5 = alloca ptr, align 8
  %6 = alloca ptr, align 8
  %7 = alloca ptr, align 8
  %8 = alloca ptr, align 8
  %9 = alloca i32, align 4
  %10 = alloca ptr, align 8
  %11 = alloca i64, align 8
  %12 = alloca ptr, align 8
  store ptr %0, ptr %5, align 8, !tbaa !3
  store ptr %1, ptr %6, align 8, !tbaa !3
  store ptr %2, ptr %7, align 8, !tbaa !3
  store ptr %3, ptr %8, align 8, !tbaa !3
  call void @llvm.lifetime.start.p0(i64 4, ptr %9) #8
  store i32 0, ptr %9, align 4, !tbaa !8
  %13 = load ptr, ptr %5, align 8, !tbaa !3
  %14 = getelementptr inbounds nuw %struct.sp_int, ptr %13, i32 0, i32 0
  %15 = load i16, ptr %14, align 8, !tbaa !15
  %16 = zext i16 %15 to i32
  %17 = load ptr, ptr %6, align 8, !tbaa !3
  %18 = getelementptr inbounds nuw %struct.sp_int, ptr %17, i32 0, i32 0
  %19 = load i16, ptr %18, align 8, !tbaa !15
  %20 = zext i16 %19 to i32
  %21 = add nsw i32 %16, %20
  %22 = icmp sle i32 %21, 1
  br i1 %22, label %23, label %24

23:                                               ; preds = %4
  br label %36

24:                                               ; preds = %4
  %25 = load ptr, ptr %5, align 8, !tbaa !3
  %26 = getelementptr inbounds nuw %struct.sp_int, ptr %25, i32 0, i32 0
  %27 = load i16, ptr %26, align 8, !tbaa !15
  %28 = zext i16 %27 to i32
  %29 = load ptr, ptr %6, align 8, !tbaa !3
  %30 = getelementptr inbounds nuw %struct.sp_int, ptr %29, i32 0, i32 0
  %31 = load i16, ptr %30, align 8, !tbaa !15
  %32 = zext i16 %31 to i32
  %33 = add nsw i32 %28, %32
  %34 = sub nsw i32 %33, 1
  %35 = sext i32 %34 to i64
  br label %36

36:                                               ; preds = %24, %23
  %37 = phi i64 [ 0, %23 ], [ %35, %24 ]
  %38 = mul i64 %37, 8
  %39 = add i64 16, %38
  %40 = call ptr @llvm.stacksave.p0()
  store ptr %40, ptr %10, align 8
  %41 = alloca i8, i64 %39, align 16
  store i64 %39, ptr %11, align 8
  call void @llvm.lifetime.start.p0(i64 8, ptr %12) #8
  store ptr %41, ptr %12, align 8, !tbaa !3
  br label %42

42:                                               ; preds = %36
  %43 = load i32, ptr %9, align 4, !tbaa !8
  %44 = icmp eq i32 %43, 0
  br i1 %44, label %45, label %57

45:                                               ; preds = %42
  %46 = load ptr, ptr %5, align 8, !tbaa !3
  %47 = getelementptr inbounds nuw %struct.sp_int, ptr %46, i32 0, i32 0
  %48 = load i16, ptr %47, align 8, !tbaa !15
  %49 = zext i16 %48 to i32
  %50 = load ptr, ptr %6, align 8, !tbaa !3
  %51 = getelementptr inbounds nuw %struct.sp_int, ptr %50, i32 0, i32 0
  %52 = load i16, ptr %51, align 8, !tbaa !15
  %53 = zext i16 %52 to i32
  %54 = add nsw i32 %49, %53
  %55 = icmp sgt i32 %54, 129
  br i1 %55, label %56, label %57

56:                                               ; preds = %45
  store i32 -98, ptr %9, align 4, !tbaa !8
  br label %57

57:                                               ; preds = %56, %45, %42
  br label %58

58:                                               ; preds = %57
  br label %59

59:                                               ; preds = %58
  %60 = load i32, ptr %9, align 4, !tbaa !8
  %61 = icmp eq i32 %60, 0
  br i1 %61, label %62, label %76

62:                                               ; preds = %59
  %63 = load ptr, ptr %12, align 8, !tbaa !3
  %64 = load ptr, ptr %5, align 8, !tbaa !3
  %65 = getelementptr inbounds nuw %struct.sp_int, ptr %64, i32 0, i32 0
  %66 = load i16, ptr %65, align 8, !tbaa !15
  %67 = zext i16 %66 to i32
  %68 = load ptr, ptr %6, align 8, !tbaa !3
  %69 = getelementptr inbounds nuw %struct.sp_int, ptr %68, i32 0, i32 0
  %70 = load i16, ptr %69, align 8, !tbaa !15
  %71 = zext i16 %70 to i32
  %72 = add nsw i32 %67, %71
  %73 = trunc i32 %72 to i16
  %74 = zext i16 %73 to i32
  %75 = call i32 @sp_init_size(ptr noundef %63, i32 noundef %74)
  store i32 %75, ptr %9, align 4, !tbaa !8
  br label %76

76:                                               ; preds = %62, %59
  %77 = load i32, ptr %9, align 4, !tbaa !8
  %78 = icmp eq i32 %77, 0
  br i1 %78, label %79, label %84

79:                                               ; preds = %76
  %80 = load ptr, ptr %5, align 8, !tbaa !3
  %81 = load ptr, ptr %6, align 8, !tbaa !3
  %82 = load ptr, ptr %12, align 8, !tbaa !3
  %83 = call i32 @sp_mul(ptr noundef %80, ptr noundef %81, ptr noundef %82)
  store i32 %83, ptr %9, align 4, !tbaa !8
  br label %84

84:                                               ; preds = %79, %76
  %85 = load i32, ptr %9, align 4, !tbaa !8
  %86 = icmp eq i32 %85, 0
  br i1 %86, label %87, label %92

87:                                               ; preds = %84
  %88 = load ptr, ptr %12, align 8, !tbaa !3
  %89 = load ptr, ptr %7, align 8, !tbaa !3
  %90 = load ptr, ptr %8, align 8, !tbaa !3
  %91 = call i32 @sp_mod(ptr noundef %88, ptr noundef %89, ptr noundef %90)
  store i32 %91, ptr %9, align 4, !tbaa !8
  br label %92

92:                                               ; preds = %87, %84
  br label %93

93:                                               ; preds = %92
  br label %94

94:                                               ; preds = %93
  br label %95

95:                                               ; preds = %94
  %96 = load i32, ptr %9, align 4, !tbaa !8
  call void @llvm.lifetime.end.p0(i64 8, ptr %12) #8
  %97 = load ptr, ptr %10, align 8
  call void @llvm.stackrestore.p0(ptr %97)
  call void @llvm.lifetime.end.p0(i64 4, ptr %9) #8
  ret i32 %96
}