; Function Attrs: nofree norecurse nosync nounwind memory(readwrite, inaccessiblemem: none) uwtable
define internal fastcc range(i32 -98, 1) i32 @_sp_mulmod_tmp(ptr noundef captures(address_is_null) %0, ptr noundef captures(address_is_null) %1, ptr noundef captures(address_is_null) %2, ptr noundef captures(address) %3) unnamed_addr #11 {
  %5 = load i16, ptr %0, align 8, !tbaa !12
  %6 = zext i16 %5 to i32
  %7 = load i16, ptr %1, align 8, !tbaa !12
  %8 = zext i16 %7 to i32
  %9 = add nuw nsw i32 %8, %6
  %10 = icmp samesign ult i32 %9, 2
  %11 = add nsw i32 %9, -1
  %12 = zext nneg i32 %11 to i64
  %13 = shl nuw nsw i64 %12, 3
  %14 = add nuw nsw i64 %13, 16
  %15 = select i1 %10, i64 16, i64 %14
  %16 = alloca i8, i64 %15, align 16
  %17 = icmp samesign ult i32 %9, 130
  br i1 %17, label %18, label %sp_mod.exit

18:                                               ; preds = %4
  %19 = add i16 %7, %5
  %20 = add i16 %19, -1
  %21 = icmp ult i16 %20, 129
  br i1 %21, label %sp_init_size.exit, label %sp_mod.exit

sp_init_size.exit:                                ; preds = %18
  store i16 0, ptr %16, align 16, !tbaa !3
  %22 = getelementptr inbounds nuw i8, ptr %16, i64 8
  store i64 0, ptr %22, align 8, !tbaa !8
  %23 = getelementptr inbounds nuw i8, ptr %16, i64 2
  store i16 %19, ptr %23, align 2, !tbaa !10
  %24 = call i32 @sp_mul(ptr noundef nonnull %0, ptr noundef nonnull %1, ptr noundef nonnull %16)
  %25 = icmp eq i32 %24, 0
  br i1 %25, label %26, label %sp_mod.exit

26:                                               ; preds = %sp_init_size.exit
  %27 = icmp eq ptr %2, null
  %28 = icmp eq ptr %3, null
  %or.cond3.i = or i1 %27, %28
  br i1 %or.cond3.i, label %sp_mod.exit, label %29

29:                                               ; preds = %26
  %30 = load i16, ptr %16, align 16, !tbaa !12
  %31 = icmp ult i16 %30, 129
  br i1 %31, label %32, label %sp_mod.exit

32:                                               ; preds = %29
  %33 = call i32 @sp_div(ptr noundef nonnull %16, ptr noundef nonnull %2, ptr noundef null, ptr noundef nonnull %3)
  br label %sp_mod.exit

sp_mod.exit:                                      ; preds = %4, %18, %32, %29, %26, %sp_init_size.exit
  %.3 = phi i32 [ %24, %sp_init_size.exit ], [ %33, %32 ], [ -98, %29 ], [ -98, %26 ], [ -98, %18 ], [ -98, %4 ]
  ret i32 %.3
}